; ModuleID = 'source-C-CXX/33/2705.c'
source_filename = "source-C-CXX/33/2705.c"
target datalayout = "e-m:e-p270:32:32-p271:32:32-p272:64:64-i64:64-f80:128-n8:16:32:64-S128"
target triple = "x86_64-pc-linux-gnu"

@.str = private unnamed_addr constant [11 x i8] c"%d*3+1=%d\0A\00", align 1
@.str.1 = private unnamed_addr constant [9 x i8] c"%d/2=%d\0A\00", align 1
@.str.2 = private unnamed_addr constant [4 x i8] c"End\00", align 1
@.str.3 = private unnamed_addr constant [3 x i8] c"%d\00", align 1

; Function Attrs: nofree nounwind sspstrong uwtable
define dso_local void @gujiao(i32 %0) local_unnamed_addr #0 {
  br label %2

2:                                                ; preds = %13, %1
  %3 = phi i32 [ %0, %1 ], [ %14, %13 ]
  %4 = and i32 %3, 1
  %5 = icmp eq i32 %4, 0
  br i1 %5, label %10, label %6

6:                                                ; preds = %2
  %7 = mul nsw i32 %3, 3
  %8 = add nsw i32 %7, 1
  %9 = tail call i32 (i8*, ...) @printf(i8* nonnull dereferenceable(1) getelementptr inbounds ([11 x i8], [11 x i8]* @.str, i64 0, i64 0), i32 %3, i32 %8)
  br label %13

10:                                               ; preds = %2
  %11 = sdiv i32 %3, 2
  %12 = tail call i32 (i8*, ...) @printf(i8* nonnull dereferenceable(1) getelementptr inbounds ([9 x i8], [9 x i8]* @.str.1, i64 0, i64 0), i32 %3, i32 %11)
  br label %13

13:                                               ; preds = %10, %6
  %14 = phi i32 [ %8, %6 ], [ %11, %10 ]
  %15 = icmp eq i32 %14, 1
  br i1 %15, label %16, label %2

16:                                               ; preds = %13
  %17 = tail call i32 (i8*, ...) @printf(i8* nonnull dereferenceable(1) getelementptr inbounds ([4 x i8], [4 x i8]* @.str.2, i64 0, i64 0))
  ret void
}

; Function Attrs: nofree nounwind
declare noundef i32 @printf(i8* nocapture noundef readonly, ...) local_unnamed_addr #1

; Function Attrs: nofree nounwind sspstrong uwtable
define dso_local i32 @main() local_unnamed_addr #0 {
  %1 = alloca i32, align 4
  %2 = bitcast i32* %1 to i8*
  call void @llvm.lifetime.start.p0i8(i64 4, i8* nonnull %2) #3
  %3 = call i32 (i8*, ...) @__isoc99_scanf(i8* getelementptr inbounds ([3 x i8], [3 x i8]* @.str.3, i64 0, i64 0), i32* nonnull %1)
  %4 = load i32, i32* %1, align 4, !tbaa !5
  %5 = icmp eq i32 %4, 1
  br i1 %5, label %6, label %8

6:                                                ; preds = %0
  %7 = call i32 (i8*, ...) @printf(i8* nonnull dereferenceable(1) getelementptr inbounds ([4 x i8], [4 x i8]* @.str.2, i64 0, i64 0))
  br label %24

8:                                                ; preds = %0, %19
  %9 = phi i32 [ %20, %19 ], [ %4, %0 ]
  %10 = and i32 %9, 1
  %11 = icmp eq i32 %10, 0
  br i1 %11, label %16, label %12

12:                                               ; preds = %8
  %13 = mul nsw i32 %9, 3
  %14 = add nsw i32 %13, 1
  %15 = call i32 (i8*, ...) @printf(i8* nonnull dereferenceable(1) getelementptr inbounds ([11 x i8], [11 x i8]* @.str, i64 0, i64 0), i32 %9, i32 %14) #3
  br label %19

16:                                               ; preds = %8
  %17 = sdiv i32 %9, 2
  %18 = call i32 (i8*, ...) @printf(i8* nonnull dereferenceable(1) getelementptr inbounds ([9 x i8], [9 x i8]* @.str.1, i64 0, i64 0), i32 %9, i32 %17) #3
  br label %19

19:                                               ; preds = %16, %12
  %20 = phi i32 [ %14, %12 ], [ %17, %16 ]
  %21 = icmp eq i32 %20, 1
  br i1 %21, label %22, label %8

22:                                               ; preds = %19
  %23 = call i32 (i8*, ...) @printf(i8* nonnull dereferenceable(1) getelementptr inbounds ([4 x i8], [4 x i8]* @.str.2, i64 0, i64 0)) #3
  br label %24

24:                                               ; preds = %22, %6
  call void @llvm.lifetime.end.p0i8(i64 4, i8* nonnull %2) #3
  ret i32 0
}

; Function Attrs: argmemonly mustprogress nofree nosync nounwind willreturn
declare void @llvm.lifetime.start.p0i8(i64 immarg, i8* nocapture) #2

; Function Attrs: nofree nounwind
declare noundef i32 @__isoc99_scanf(i8* nocapture noundef readonly, ...) local_unnamed_addr #1

; Function Attrs: argmemonly mustprogress nofree nosync nounwind willreturn
declare void @llvm.lifetime.end.p0i8(i64 immarg, i8* nocapture) #2


!llvm.module.flags = !{!0, !1, !2, !3}
!llvm.ident = !{!4}

!0 = !{i32 1, !"wchar_size", i32 4}
!1 = !{i32 7, !"PIC Level", i32 2}
!2 = !{i32 7, !"PIE Level", i32 2}
!3 = !{i32 7, !"uwtable", i32 1}
!4 = !{!"clang version 13.0.0"}
!5 = !{!6, !6, i64 0}
!6 = !{!"int", !7, i64 0}
!7 = !{!"omnipotent char", !8, i64 0}
!8 = !{!"Simple C/C++ TBAA"}
